; Function Attrs: nounwind uwtable
define internal fastcc i32 @ftp_state_pwd(ptr noundef %0, ptr noundef %1) unnamed_addr #0 {
  %3 = getelementptr inbounds nuw i8, ptr %1, i64 1088
  %4 = tail call i32 (ptr, ptr, ptr, ...) @Curl_pp_sendf(ptr noundef %0, ptr noundef nonnull %3, ptr noundef nonnull @.str.51, ptr noundef nonnull @.str.18) #10
  %.not = icmp eq i32 %4, 0
  br i1 %.not, label %5, label %30

5:                                                ; preds = %2
  %6 = getelementptr inbounds nuw i8, ptr %0, i64 24
  %7 = load ptr, ptr %6, align 8, !tbaa !105
  %8 = getelementptr inbounds nuw i8, ptr %7, i64 1358
  %9 = load i8, ptr %8, align 2, !tbaa !136
  %10 = icmp ne i8 %9, 9
  %11 = icmp ne ptr %0, null
  %or.cond4.i = and i1 %11, %10
  br i1 %or.cond4.i, label %12, label %_ftp_state.exit

12:                                               ; preds = %5
  %13 = getelementptr inbounds nuw i8, ptr %0, i64 2658
  %14 = load i64, ptr %13, align 2
  %15 = and i64 %14, 2147483648
  %.not.i = icmp eq i64 %15, 0
  br i1 %.not.i, label %_ftp_state.exit, label %16

16:                                               ; preds = %12
  %17 = getelementptr inbounds nuw i8, ptr %0, i64 4864
  %18 = load ptr, ptr %17, align 8, !tbaa !102
  %.not20.i = icmp eq ptr %18, null
  br i1 %.not20.i, label %25, label %19

19:                                               ; preds = %16
  %20 = getelementptr inbounds nuw i8, ptr %18, i64 8
  %21 = load i32, ptr %20, align 8, !tbaa !103
  %22 = icmp sgt i32 %21, 0
  %23 = load i32, ptr getelementptr inbounds nuw (i8, ptr @Curl_trc_feat_ftp, i64 8), align 8
  %24 = icmp sgt i32 %23, 0
  %or.cond.i = select i1 %22, i1 %24, i1 false
  br i1 %or.cond.i, label %26, label %_ftp_state.exit

25:                                               ; preds = %16
  %.old.i = load i32, ptr getelementptr inbounds nuw (i8, ptr @Curl_trc_feat_ftp, i64 8), align 8, !tbaa !103
  %.old1.i = icmp sgt i32 %.old.i, 0
  br i1 %.old1.i, label %26, label %_ftp_state.exit

26:                                               ; preds = %25, %19
  %27 = zext i8 %9 to i64
  %28 = getelementptr inbounds nuw [35 x ptr], ptr @ftp_state_names, i64 0, i64 %27
  %29 = load ptr, ptr %28, align 8, !tbaa !7
  tail call void (ptr, ptr, ...) @Curl_trc_ftp(ptr noundef nonnull %0, ptr noundef nonnull @.str.7, ptr noundef %29, ptr noundef nonnull @.str.18) #10
  br label %_ftp_state.exit

_ftp_state.exit:                                  ; preds = %5, %12, %19, %25, %26
  store i8 9, ptr %8, align 2, !tbaa !136
  br label %30

30:                                               ; preds = %_ftp_state.exit, %2
  ret i32 %4
}